; ModuleID = 'source-C-CXX/26/1678.c'
source_filename = "source-C-CXX/26/1678.c"
target datalayout = "e-m:e-p270:32:32-p271:32:32-p272:64:64-i64:64-f80:128-n8:16:32:64-S128"
target triple = "x86_64-pc-linux-gnu"

@.str = private unnamed_addr constant [3 x i8] c"%d\00", align 1
@.str.1 = private unnamed_addr constant [9 x i8] c"%f %f %f\00", align 1
@.str.2 = private unnamed_addr constant [17 x i8] c"x1=%.5f;x2=%.5f\0A\00", align 1
@.str.3 = private unnamed_addr constant [12 x i8] c"x1=x2=%.5f\0A\00", align 1
@.str.4 = private unnamed_addr constant [29 x i8] c"x1=%.5f+%.5fi;x2=%.5f-%.5fi\0A\00", align 1

; Function Attrs: nofree nounwind sspstrong uwtable
define dso_local i32 @main() local_unnamed_addr #0 {
  %1 = alloca i32, align 4
  %2 = alloca float, align 4
  %3 = alloca float, align 4
  %4 = alloca float, align 4
  %5 = bitcast i32* %1 to i8*
  call void @llvm.lifetime.start.p0i8(i64 4, i8* nonnull %5) #4
  %6 = bitcast float* %2 to i8*
  call void @llvm.lifetime.start.p0i8(i64 4, i8* nonnull %6) #4
  %7 = bitcast float* %3 to i8*
  call void @llvm.lifetime.start.p0i8(i64 4, i8* nonnull %7) #4
  %8 = bitcast float* %4 to i8*
  call void @llvm.lifetime.start.p0i8(i64 4, i8* nonnull %8) #4
  %9 = call i32 (i8*, ...) @__isoc99_scanf(i8* getelementptr inbounds ([3 x i8], [3 x i8]* @.str, i64 0, i64 0), i32* nonnull %1)
  %10 = load i32, i32* %1, align 4, !tbaa !5
  %11 = add nsw i32 %10, -1
  store i32 %11, i32* %1, align 4, !tbaa !5
  %12 = icmp eq i32 %10, 0
  br i1 %12, label %79, label %13

13:                                               ; preds = %0, %75
  %14 = call i32 (i8*, ...) @__isoc99_scanf(i8* getelementptr inbounds ([9 x i8], [9 x i8]* @.str.1, i64 0, i64 0), float* nonnull %2, float* nonnull %3, float* nonnull %4)
  %15 = load float, float* %3, align 4, !tbaa !9
  %16 = fmul float %15, %15
  %17 = load float, float* %2, align 4, !tbaa !9
  %18 = fmul float %17, 4.000000e+00
  %19 = load float, float* %4, align 4, !tbaa !9
  %20 = fmul float %18, %19
  %21 = fsub float %16, %20
  %22 = fpext float %21 to double
  %23 = fcmp ogt float %21, 0.000000e+00
  br i1 %23, label %24, label %43

24:                                               ; preds = %13
  %25 = fneg float %15
  %26 = fpext float %25 to double
  %27 = call double @sqrt(double %22) #4
  %28 = fadd double %27, %26
  %29 = load float, float* %2, align 4, !tbaa !9
  %30 = fmul float %29, 2.000000e+00
  %31 = fpext float %30 to double
  %32 = fdiv double %28, %31
  %33 = load float, float* %3, align 4, !tbaa !9
  %34 = fneg float %33
  %35 = fpext float %34 to double
  %36 = call double @sqrt(double %22) #4
  %37 = fsub double %35, %36
  %38 = load float, float* %2, align 4, !tbaa !9
  %39 = fmul float %38, 2.000000e+00
  %40 = fpext float %39 to double
  %41 = fdiv double %37, %40
  %42 = call i32 (i8*, ...) @printf(i8* nonnull dereferenceable(1) getelementptr inbounds ([17 x i8], [17 x i8]* @.str.2, i64 0, i64 0), double %32, double %41)
  br label %75

43:                                               ; preds = %13
  %44 = fcmp oeq float %21, 0.000000e+00
  br i1 %44, label %45, label %51

45:                                               ; preds = %43
  %46 = fneg float %15
  %47 = fmul float %17, 2.000000e+00
  %48 = fdiv float %46, %47
  %49 = fpext float %48 to double
  %50 = call i32 (i8*, ...) @printf(i8* nonnull dereferenceable(1) getelementptr inbounds ([12 x i8], [12 x i8]* @.str.3, i64 0, i64 0), double %49)
  br label %75

51:                                               ; preds = %43
  %52 = fneg double %22
  %53 = fcmp oeq float %15, 0.000000e+00
  br i1 %53, label %54, label %64

54:                                               ; preds = %51
  %55 = fmul float %17, 2.000000e+00
  %56 = fdiv float %15, %55
  %57 = fpext float %56 to double
  %58 = call double @sqrt(double %52) #4
  %59 = load float, float* %2, align 4, !tbaa !9
  %60 = fmul float %59, 2.000000e+00
  %61 = fpext float %60 to double
  %62 = fdiv double %58, %61
  %63 = call i32 (i8*, ...) @printf(i8* nonnull dereferenceable(1) getelementptr inbounds ([29 x i8], [29 x i8]* @.str.4, i64 0, i64 0), double %57, double %62, double %57, double %62)
  br label %75

64:                                               ; preds = %51
  %65 = fneg float %15
  %66 = fmul float %17, 2.000000e+00
  %67 = fdiv float %65, %66
  %68 = fpext float %67 to double
  %69 = call double @sqrt(double %52) #4
  %70 = load float, float* %2, align 4, !tbaa !9
  %71 = fmul float %70, 2.000000e+00
  %72 = fpext float %71 to double
  %73 = fdiv double %69, %72
  %74 = call i32 (i8*, ...) @printf(i8* nonnull dereferenceable(1) getelementptr inbounds ([29 x i8], [29 x i8]* @.str.4, i64 0, i64 0), double %68, double %73, double %68, double %73)
  br label %75

75:                                               ; preds = %45, %64, %54, %24
  %76 = load i32, i32* %1, align 4, !tbaa !5
  %77 = add nsw i32 %76, -1
  store i32 %77, i32* %1, align 4, !tbaa !5
  %78 = icmp eq i32 %76, 0
  br i1 %78, label %79, label %13, !llvm.loop !11

79:                                               ; preds = %75, %0
  call void @llvm.lifetime.end.p0i8(i64 4, i8* nonnull %8) #4
  call void @llvm.lifetime.end.p0i8(i64 4, i8* nonnull %7) #4
  call void @llvm.lifetime.end.p0i8(i64 4, i8* nonnull %6) #4
  call void @llvm.lifetime.end.p0i8(i64 4, i8* nonnull %5) #4
  ret i32 0
}

; Function Attrs: argmemonly mustprogress nofree nosync nounwind willreturn
declare void @llvm.lifetime.start.p0i8(i64 immarg, i8* nocapture) #1

; Function Attrs: nofree nounwind
declare noundef i32 @__isoc99_scanf(i8* nocapture noundef readonly, ...) local_unnamed_addr #2

; Function Attrs: mustprogress nofree nounwind willreturn
declare double @sqrt(double) local_unnamed_addr #3

; Function Attrs: nofree nounwind
declare noundef i32 @printf(i8* nocapture noundef readonly, ...) local_unnamed_addr #2

; Function Attrs: argmemonly mustprogress nofree nosync nounwind willreturn
declare void @llvm.lifetime.end.p0i8(i64 immarg, i8* nocapture) #1


!llvm.module.flags = !{!0, !1, !2, !3}
!llvm.ident = !{!4}

!0 = !{i32 1, !"wchar_size", i32 4}
!1 = !{i32 7, !"PIC Level", i32 2}
!2 = !{i32 7, !"PIE Level", i32 2}
!3 = !{i32 7, !"uwtable", i32 1}
!4 = !{!"clang version 13.0.0"}
!5 = !{!6, !6, i64 0}
!6 = !{!"int", !7, i64 0}
!7 = !{!"omnipotent char", !8, i64 0}
!8 = !{!"Simple C/C++ TBAA"}
!9 = !{!10, !10, i64 0}
!10 = !{!"float", !7, i64 0}
!11 = distinct !{!11, !12}
!12 = !{!"llvm.loop.mustprogress"}
